target datalayout = "e-m:e-p270:32:32-p271:32:32-p272:64:64-i64:64-i128:128-f80:128-n8:16:32:64-S128"
target triple = "x86_64-pc-linux-gnu"

%struct.ML_KEM_VINFO = type { ptr, i64, i64, i64, i64, i64, i64, i64, i32, i32, i32, i32, i32, i32 }
%struct.ossl_ml_kem_key_st = type { ptr, ptr, ptr, ptr, ptr, ptr, ptr, ptr, ptr, ptr, ptr, ptr, ptr, i32, i32, [64 x i8], ptr }

@.str = private unnamed_addr constant [34 x i8] c"../openssl/crypto/ml_kem/ml_kem.c\00", align 1

; Function Attrs: nounwind uwtable
define void @ossl_ml_kem_key_reset(ptr noundef %0) #0 {
  %2 = alloca ptr, align 8
  store ptr %0, ptr %2, align 8, !tbaa !3
  %3 = load ptr, ptr %2, align 8, !tbaa !3
  %4 = getelementptr inbounds nuw %struct.ossl_ml_kem_key_st, ptr %3, i32 0, i32 8
  %5 = load ptr, ptr %4, align 8, !tbaa !8
  %6 = icmp eq ptr %5, null
  br i1 %6, label %7, label %8

7:                                                ; preds = %1
  br label %37

8:                                                ; preds = %1
  %9 = load ptr, ptr %2, align 8, !tbaa !3
  %10 = getelementptr inbounds nuw %struct.ossl_ml_kem_key_st, ptr %9, i32 0, i32 10
  %11 = load ptr, ptr %10, align 8, !tbaa !15
  %12 = icmp ne ptr %11, null
  br i1 %12, label %13, label %23

13:                                               ; preds = %8
  %14 = load ptr, ptr %2, align 8, !tbaa !3
  %15 = getelementptr inbounds nuw %struct.ossl_ml_kem_key_st, ptr %14, i32 0, i32 10
  %16 = load ptr, ptr %15, align 8, !tbaa !15
  %17 = load ptr, ptr %2, align 8, !tbaa !3
  %18 = getelementptr inbounds nuw %struct.ossl_ml_kem_key_st, ptr %17, i32 0, i32 0
  %19 = load ptr, ptr %18, align 8, !tbaa !16
  %20 = getelementptr inbounds nuw %struct.ML_KEM_VINFO, ptr %19, i32 0, i32 6
  %21 = load i64, ptr %20, align 8, !tbaa !17
  %22 = add i64 %21, 64
  call void @OPENSSL_cleanse(ptr noundef %16, i64 noundef %22)
  br label %23

23:                                               ; preds = %13, %8
  %24 = load ptr, ptr %2, align 8, !tbaa !3
  %25 = getelementptr inbounds nuw %struct.ossl_ml_kem_key_st, ptr %24, i32 0, i32 8
  %26 = load ptr, ptr %25, align 8, !tbaa !8
  call void @CRYPTO_free(ptr noundef %26, ptr noundef @.str, i32 noundef 1554)
  %27 = load ptr, ptr %2, align 8, !tbaa !3
  %28 = getelementptr inbounds nuw %struct.ossl_ml_kem_key_st, ptr %27, i32 0, i32 8
  store ptr null, ptr %28, align 8, !tbaa !8
  %29 = load ptr, ptr %2, align 8, !tbaa !3
  %30 = getelementptr inbounds nuw %struct.ossl_ml_kem_key_st, ptr %29, i32 0, i32 9
  store ptr null, ptr %30, align 8, !tbaa !20
  %31 = load ptr, ptr %2, align 8, !tbaa !3
  %32 = getelementptr inbounds nuw %struct.ossl_ml_kem_key_st, ptr %31, i32 0, i32 10
  store ptr null, ptr %32, align 8, !tbaa !15
  %33 = load ptr, ptr %2, align 8, !tbaa !3
  %34 = getelementptr inbounds nuw %struct.ossl_ml_kem_key_st, ptr %33, i32 0, i32 11
  store ptr null, ptr %34, align 8, !tbaa !21
  %35 = load ptr, ptr %2, align 8, !tbaa !3
  %36 = getelementptr inbounds nuw %struct.ossl_ml_kem_key_st, ptr %35, i32 0, i32 12
  store ptr null, ptr %36, align 8, !tbaa !22
  br label %37

37:                                               ; preds = %23, %7
  ret void
}