; Function Attrs: nounwind uwtable
define void @ossl_ml_kem_key_reset(ptr noundef captures(none) %0) local_unnamed_addr #0 {
  %2 = getelementptr inbounds nuw i8, ptr %0, i64 64
  %3 = load ptr, ptr %2, align 8, !tbaa !3
  %4 = icmp eq ptr %3, null
  br i1 %4, label %15, label %5

5:                                                ; preds = %1
  %6 = getelementptr inbounds nuw i8, ptr %0, i64 80
  %7 = load ptr, ptr %6, align 8, !tbaa !13
  %.not = icmp eq ptr %7, null
  br i1 %.not, label %13, label %8

8:                                                ; preds = %5
  %9 = load ptr, ptr %0, align 8, !tbaa !14
  %10 = getelementptr inbounds nuw i8, ptr %9, i64 48
  %11 = load i64, ptr %10, align 8, !tbaa !15
  %12 = add i64 %11, 64
  tail call void @OPENSSL_cleanse(ptr noundef nonnull %7, i64 noundef %12) #13
  %.pre = load ptr, ptr %2, align 8, !tbaa !3
  br label %13

13:                                               ; preds = %8, %5
  %14 = phi ptr [ %.pre, %8 ], [ %3, %5 ]
  tail call void @CRYPTO_free(ptr noundef %14, ptr noundef nonnull @.str, i32 noundef 1554) #13
  tail call void @llvm.memset.p0.i64(ptr noundef nonnull align 8 dereferenceable(40) %2, i8 0, i64 40, i1 false)
  br label %15

15:                                               ; preds = %1, %13
  ret void
}